target datalayout = "e-m:e-p270:32:32-p271:32:32-p272:64:64-i64:64-i128:128-f80:128-n8:16:32:64-S128"
target triple = "x86_64-pc-linux-gnu"

; Function Attrs: nounwind uwtable
define i32 @X509_check_host(ptr noundef %0, ptr noundef %1, i64 noundef %2, i32 noundef %3, ptr noundef %4) #0 {
  %6 = alloca i32, align 4
  %7 = alloca ptr, align 8
  %8 = alloca ptr, align 8
  %9 = alloca i64, align 8
  %10 = alloca i32, align 4
  %11 = alloca ptr, align 8
  store ptr %0, ptr %7, align 8, !tbaa !38
  store ptr %1, ptr %8, align 8, !tbaa !3
  store i64 %2, ptr %9, align 8, !tbaa !10
  store i32 %3, ptr %10, align 4, !tbaa !15
  store ptr %4, ptr %11, align 8, !tbaa !71
  %12 = load ptr, ptr %8, align 8, !tbaa !3
  %13 = icmp eq ptr %12, null
  br i1 %13, label %14, label %15

14:                                               ; preds = %5
  store i32 -2, ptr %6, align 4
  br label %57

15:                                               ; preds = %5
  %16 = load i64, ptr %9, align 8, !tbaa !10
  %17 = icmp eq i64 %16, 0
  br i1 %17, label %18, label %21

18:                                               ; preds = %15
  %19 = load ptr, ptr %8, align 8, !tbaa !3
  %20 = call i64 @strlen(ptr noundef %19) #7
  store i64 %20, ptr %9, align 8, !tbaa !10
  br label %36

21:                                               ; preds = %15
  %22 = load ptr, ptr %8, align 8, !tbaa !3
  %23 = load i64, ptr %9, align 8, !tbaa !10
  %24 = icmp ugt i64 %23, 1
  br i1 %24, label %25, label %28

25:                                               ; preds = %21
  %26 = load i64, ptr %9, align 8, !tbaa !10
  %27 = sub i64 %26, 1
  br label %30

28:                                               ; preds = %21
  %29 = load i64, ptr %9, align 8, !tbaa !10
  br label %30

30:                                               ; preds = %28, %25
  %31 = phi i64 [ %27, %25 ], [ %29, %28 ]
  %32 = call ptr @memchr(ptr noundef %22, i32 noundef 0, i64 noundef %31) #7
  %33 = icmp ne ptr %32, null
  br i1 %33, label %34, label %35

34:                                               ; preds = %30
  store i32 -2, ptr %6, align 4
  br label %57

35:                                               ; preds = %30
  br label %36

36:                                               ; preds = %35, %18
  %37 = load i64, ptr %9, align 8, !tbaa !10
  %38 = icmp ugt i64 %37, 1
  br i1 %38, label %39, label %50

39:                                               ; preds = %36
  %40 = load ptr, ptr %8, align 8, !tbaa !3
  %41 = load i64, ptr %9, align 8, !tbaa !10
  %42 = sub i64 %41, 1
  %43 = getelementptr inbounds nuw i8, ptr %40, i64 %42
  %44 = load i8, ptr %43, align 1, !tbaa !27
  %45 = sext i8 %44 to i32
  %46 = icmp eq i32 %45, 0
  br i1 %46, label %47, label %50

47:                                               ; preds = %39
  %48 = load i64, ptr %9, align 8, !tbaa !10
  %49 = add i64 %48, -1
  store i64 %49, ptr %9, align 8, !tbaa !10
  br label %50

50:                                               ; preds = %47, %39, %36
  %51 = load ptr, ptr %7, align 8, !tbaa !38
  %52 = load ptr, ptr %8, align 8, !tbaa !3
  %53 = load i64, ptr %9, align 8, !tbaa !10
  %54 = load i32, ptr %10, align 4, !tbaa !15
  %55 = load ptr, ptr %11, align 8, !tbaa !71
  %56 = call i32 @do_x509_check(ptr noundef %51, ptr noundef %52, i64 noundef %53, i32 noundef %54, i32 noundef 2, ptr noundef %55)
  store i32 %56, ptr %6, align 4
  br label %57

57:                                               ; preds = %50, %34, %14
  %58 = load i32, ptr %6, align 4
  ret i32 %58
}