; Function Attrs: nounwind uwtable
define i32 @X509_check_host(ptr noundef %0, ptr noundef %1, i64 noundef %2, i32 noundef %3, ptr noundef captures(address_is_null) %4) local_unnamed_addr #0 {
  %6 = icmp eq ptr %1, null
  br i1 %6, label %25, label %7

7:                                                ; preds = %5
  %8 = icmp eq i64 %2, 0
  br i1 %8, label %9, label %11

9:                                                ; preds = %7
  %10 = tail call i64 @strlen(ptr noundef nonnull dereferenceable(1) %1) #11
  br label %15

11:                                               ; preds = %7
  %.not = icmp eq i64 %2, 1
  %12 = add i64 %2, -1
  %13 = select i1 %.not, i64 1, i64 %12
  %14 = tail call ptr @memchr(ptr noundef nonnull %1, i32 noundef 0, i64 noundef %13) #11
  %.not19 = icmp eq ptr %14, null
  br i1 %.not19, label %15, label %25

15:                                               ; preds = %11, %9
  %.016 = phi i64 [ %10, %9 ], [ %2, %11 ]
  %16 = icmp ugt i64 %.016, 1
  br i1 %16, label %17, label %23

17:                                               ; preds = %15
  %18 = getelementptr i8, ptr %1, i64 %.016
  %19 = getelementptr i8, ptr %18, i64 -1
  %20 = load i8, ptr %19, align 1, !tbaa !13
  %21 = icmp eq i8 %20, 0
  %22 = sext i1 %21 to i64
  %spec.select = add i64 %.016, %22
  br label %23

23:                                               ; preds = %17, %15
  %.1 = phi i64 [ %.016, %15 ], [ %spec.select, %17 ]
  %24 = tail call fastcc i32 @do_x509_check(ptr noundef %0, ptr noundef %1, i64 noundef %.1, i32 noundef %3, i32 noundef 2, ptr noundef %4)
  br label %25

25:                                               ; preds = %11, %5, %23
  %.0 = phi i32 [ %24, %23 ], [ -2, %5 ], [ -2, %11 ]
  ret i32 %.0
}